

HI-TECH Software PIC LITE Macro Assembler V9.82 build 9453 
                                                                                               Mon Apr 17 13:59:22 2017

HI-TECH Software Omniscient Code Generator (Lite mode) build 9453
     1  0000                     opt subtitle "HI-TECH Software Omniscient Code Generator (Lite mode) build 9453"
     2                           
     3                           opt pagewidth 120
     4                           
     5                           	opt lm
     6                           
     7                           	processor	16F876
     8                           clrc	macro
     9                           	bcf	3,0
    10  0000                     	endm
    11                           clrz	macro
    12                           	bcf	3,2
    13  0000                     	endm
    14                           setc	macro
    15                           	bsf	3,0
    16  0000                     	endm
    17                           setz	macro
    18                           	bsf	3,2
    19  0000                     	endm
    20                           skipc	macro
    21                           	btfss	3,0
    22  0000                     	endm
    23                           skipz	macro
    24                           	btfss	3,2
    25  0000                     	endm
    26                           skipnc	macro
    27                           	btfsc	3,0
    28  0000                     	endm
    29                           skipnz	macro
    30                           	btfsc	3,2
    31  0000                     	endm
    32  0000                     indf	equ	0
    33  0000                     indf0	equ	0
    34  0002                     pc	equ	2
    35  0002                     pcl	equ	2
    36  0003                     status	equ	3
    37  0004                     fsr	equ	4
    38  0004                     fsr0	equ	4
    39  0001                     c	equ	1
    40  0000                     z	equ	0
    41  000A                     pclath	equ	10
    42                           # 21 "main.c"
    43                           	psect config,class=CONFIG,delta=2 ;#
    44                           # 21 "main.c"
    45  2007  FF79               	dw 0xFFFD & 0xFFFB & 0xFFFF & 0xFFFF & 0xFFFF & 0xFF7F & 0xFFFF & 0xFFFF ;#
    46                           	FNCALL	_main,_Init
    47                           	FNCALL	_main,_dht_get
    48                           	FNCALL	_main,___awmod
    49                           	FNCALL	_main,___awdiv
    50                           	FNCALL	_dht_get,___awdiv
    51                           	FNROOT	_main
    52                           	global	main@F919
    53                           psect	idataBANK0,class=CODE,space=0,delta=2
    54                           global __pidataBANK0
    55  057E                     __pidataBANK0:
    56                           	file	"main.c"
    57                           	line	75
    58                           
    59                           ;initializer for main@F919
    60  057E  34BF               	retlw	0BFh
    61  057F  3406               	retlw	06h
    62  0580  34DB               	retlw	0DBh
    63  0581  34CF               	retlw	0CFh
    64  0582  3466               	retlw	066h
    65  0583  34ED               	retlw	0EDh
    66  0584  34FC               	retlw	0FCh
    67  0585  3407               	retlw	07h
    68  0586  34FF               	retlw	0FFh
    69  0587  3467               	retlw	067h
    70                           	global	_PORTAbits
    71  0005                     _PORTAbits	set	5
    72                           	global	_PORTB
    73  0006                     _PORTB	set	6
    74                           	global	_PORTC
    75  0007                     _PORTC	set	7
    76                           	global	_CARRY
    77  0018                     _CARRY	set	24
    78                           	global	_GIE
    79  005F                     _GIE	set	95
    80                           	global	_TRISA
    81  0085                     _TRISA	set	133
    82                           	global	_TRISAbits
    83  0085                     _TRISAbits	set	133
    84                           	global	_TRISB
    85  0086                     _TRISB	set	134
    86                           	global	_TRISC
    87  0087                     _TRISC	set	135
    88                           	global	_EEADR
    89  010D                     _EEADR	set	269
    90                           	global	_EEDATA
    91  010C                     _EEDATA	set	268
    92                           	global	_EECON1
    93  018C                     _EECON1	set	396
    94                           	global	_EECON2
    95  018D                     _EECON2	set	397
    96                           	global	_RD
    97  0C60                     _RD	set	3168
    98                           	global	_WR
    99  0C61                     _WR	set	3169
   100                           	global	_WREN
   101  0C62                     _WREN	set	3170
   102                           	file	"C:\Users\Lorenzo\AppData\Local\Temp\sd5s."
   103                           	line	#
   104                           psect cinit,class=CODE,delta=2
   105                           global start_initialization
   106  0588                     start_initialization:
   107                           
   108                           psect	dataBANK0,class=BANK0,space=1
   109                           global __pdataBANK0
   110  0046                     __pdataBANK0:
   111                           	file	"main.c"
   112  0046                     main@F919:
   113  0046                            ds      10
   114                           
   115                           global btemp
   116                           psect inittext,class=CODE,delta=2
   117                           global init_fetch,btemp
   118                           ;	Called with low address in FSR and high address in W
   119  059A                     init_fetch:
   120  059A  087E               	movf btemp,w
   121  059B  008A               	movwf pclath
   122  059C  087F               	movf btemp+1,w
   123  059D  0082               	movwf pc
   124                           global init_ram
   125                           ;Called with:
   126                           ;	high address of idata address in btemp 
   127                           ;	low address of idata address in btemp+1 
   128                           ;	low address of data in FSR
   129                           ;	high address + 1 of data in btemp-1
   130  059E                     init_ram:
   131  059E  120A  118A  259A   	fcall init_fetch
              120A  118A         
   132  05A3  0080               	movwf indf,f
   133  05A4  0A84               	incf fsr,f
   134  05A5  0804               	movf fsr,w
   135  05A6  067D               	xorwf btemp-1,w
   136  05A7  1903               	btfsc status,2
   137  05A8  3400               	retlw 0
   138  05A9  0AFF               	incf btemp+1,f
   139  05AA  1903               	btfsc status,2
   140  05AB  0AFE               	incf btemp,f
   141  05AC  2D9E               	goto init_ram
   142                           ; Initialize objects allocated to BANK0
   143                           psect cinit,class=CODE,delta=2
   144                           global init_ram, __pidataBANK0
   145  0588  1383               	bcf	status, 7	;select IRP bank0
   146  0589  3050               	movlw low(__pdataBANK0+10)
   147  058A  00FD               	movwf btemp-1,f
   148  058B  3005               	movlw high(__pidataBANK0)
   149  058C  00FE               	movwf btemp,f
   150  058D  307E               	movlw low(__pidataBANK0)
   151  058E  00FF               	movwf btemp+1,f
   152  058F  3046               	movlw low(__pdataBANK0)
   153  0590  0084               	movwf fsr,f
   154  0591  120A  118A  259E   	fcall init_ram
              120A  118A         
   155                           psect cinit,class=CODE,delta=2
   156                           global end_of_initialization
   157                           
   158                           ;End of C runtime variable initialization code
   159                           
   160  0596                     end_of_initialization:
   161  0596  0183               clrf status
   162  0597  120A  118A  2E89   ljmp _main	;jump to C main() function
   163                           psect	cstackCOMMON,class=COMMON,space=1
   164                           global __pcstackCOMMON
   165  0070                     __pcstackCOMMON:
   166                           	global	?_Init
   167  0070                     ?_Init:	; 0 bytes @ 0x0
   168                           	global	??_Init
   169  0070                     ??_Init:	; 0 bytes @ 0x0
   170                           	global	?_main
   171  0070                     ?_main:	; 0 bytes @ 0x0
   172                           	global	?___awdiv
   173  0070                     ?___awdiv:	; 2 bytes @ 0x0
   174                           	global	___awdiv@divisor
   175  0070                     ___awdiv@divisor:	; 2 bytes @ 0x0
   176  0070                     	ds	2
   177                           	global	___awdiv@dividend
   178  0072                     ___awdiv@dividend:	; 2 bytes @ 0x2
   179  0072                     	ds	2
   180                           	global	??___awdiv
   181  0074                     ??___awdiv:	; 0 bytes @ 0x4
   182  0074                     	ds	1
   183                           	global	___awdiv@counter
   184  0075                     ___awdiv@counter:	; 1 bytes @ 0x5
   185  0075                     	ds	1
   186                           	global	___awdiv@sign
   187  0076                     ___awdiv@sign:	; 1 bytes @ 0x6
   188  0076                     	ds	1
   189                           	global	___awdiv@quotient
   190  0077                     ___awdiv@quotient:	; 2 bytes @ 0x7
   191  0077                     	ds	2
   192                           	global	?_dht_get
   193  0079                     ?_dht_get:	; 1 bytes @ 0x9
   194                           	global	?___awmod
   195  0079                     ?___awmod:	; 2 bytes @ 0x9
   196                           	global	dht_get@RH
   197  0079                     dht_get@RH:	; 1 bytes @ 0x9
   198                           	global	___awmod@divisor
   199  0079                     ___awmod@divisor:	; 2 bytes @ 0x9
   200  0079                     	ds	2
   201                           	global	___awmod@dividend
   202  007B                     ___awmod@dividend:	; 2 bytes @ 0xB
   203  007B                     	ds	2
   204                           	global	??___awmod
   205  007D                     ??___awmod:	; 0 bytes @ 0xD
   206  007D                     	ds	1
   207                           psect	cstackBANK0,class=BANK0,space=1
   208                           global __pcstackBANK0
   209  0020                     __pcstackBANK0:
   210                           	global	??_dht_get
   211  0020                     ??_dht_get:	; 0 bytes @ 0x0
   212                           	global	___awmod@counter
   213  0020                     ___awmod@counter:	; 1 bytes @ 0x0
   214  0020                     	ds	1
   215                           	global	___awmod@sign
   216  0021                     ___awmod@sign:	; 1 bytes @ 0x1
   217  0021                     	ds	5
   218                           	global	dht_get@tmp
   219  0026                     dht_get@tmp:	; 1 bytes @ 0x6
   220  0026                     	ds	1
   221                           	global	dht_get@dati
   222  0027                     dht_get@dati:	; 5 bytes @ 0x7
   223  0027                     	ds	5
   224                           	global	dht_get@j
   225  002C                     dht_get@j:	; 1 bytes @ 0xC
   226  002C                     	ds	1
   227                           	global	dht_get@i
   228  002D                     dht_get@i:	; 1 bytes @ 0xD
   229  002D                     	ds	1
   230                           	global	??_main
   231  002E                     ??_main:	; 0 bytes @ 0xE
   232  002E                     	ds	4
   233                           	global	main@SevenSeg
   234  0032                     main@SevenSeg:	; 10 bytes @ 0x12
   235  0032                     	ds	10
   236                           	global	main@unita
   237  003C                     main@unita:	; 2 bytes @ 0x1C
   238  003C                     	ds	2
   239                           	global	_main$1060
   240  003E                     _main$1060:	; 2 bytes @ 0x1E
   241  003E                     	ds	2
   242                           	global	main@umid
   243  0040                     main@umid:	; 2 bytes @ 0x20
   244  0040                     	ds	2
   245                           	global	main@decine
   246  0042                     main@decine:	; 2 bytes @ 0x22
   247  0042                     	ds	2
   248                           	global	main@temp
   249  0044                     main@temp:	; 2 bytes @ 0x24
   250  0044                     	ds	2
   251 ;;Data sizes: Strings 0, constant 0, data 10, bss 0, persistent 0 stack 0
   252 ;;Auto spaces:   Size  Autos    Used
   253 ;; COMMON          14     14      14
   254 ;; BANK0           80     38      48
   255 ;; BANK1           80      0       0
   256 ;; BANK3           96      0       0
   257 ;; BANK2           96      0       0
   258                           
   259 ;;
   260 ;; Pointer list with targets:
   261                           
   262 ;; ?___awdiv	int  size(1) Largest target is 0
   263 ;;
   264 ;; ?___awmod	int  size(1) Largest target is 0
   265 ;;
   266 ;; dht_get@RH	PTR int  size(1) Largest target is 2
   267 ;;		 -> main@umid(BANK0[2]), 
   268 ;;
   269 ;; dht_get@tmp	PTR int  size(1) Largest target is 2
   270 ;;		 -> main@temp(BANK0[2]), 
   271 ;;
   272                           
   273                           
   274 ;;
   275 ;; Critical Paths under _main in COMMON
   276 ;;
   277 ;;   _main->___awmod
   278 ;;   _dht_get->___awdiv
   279 ;;   ___awmod->___awdiv
   280 ;;
   281 ;; Critical Paths under _main in BANK0
   282 ;;
   283 ;;   _main->_dht_get
   284 ;;
   285 ;; Critical Paths under _main in BANK1
   286 ;;
   287 ;;   None.
   288 ;;
   289 ;; Critical Paths under _main in BANK3
   290 ;;
   291 ;;   None.
   292 ;;
   293 ;; Critical Paths under _main in BANK2
   294 ;;
   295 ;;   None.
   296                           
   297 ;;
   298 ;;Main: autosize = 0, tempsize = 4, incstack = 0, save=0
   299 ;;
   300                           
   301 ;;
   302 ;;Call Graph Tables:
   303 ;;
   304 ;; ---------------------------------------------------------------------------------
   305 ;; (Depth) Function   	        Calls       Base Space   Used Autos Params    Refs
   306 ;; ---------------------------------------------------------------------------------
   307 ;; (0) _main                                                24    24      0    1540
   308 ;;                                             14 BANK0     24    24      0
   309 ;;                               _Init
   310 ;;                            _dht_get
   311 ;;                            ___awmod
   312 ;;                            ___awdiv
   313 ;; ---------------------------------------------------------------------------------
   314 ;; (1) _dht_get                                             15    14      1     711
   315 ;;                                              9 COMMON     1     0      1
   316 ;;                                              0 BANK0     14    14      0
   317 ;;                            ___awdiv
   318 ;; ---------------------------------------------------------------------------------
   319 ;; (1) ___awmod                                              7     3      4     296
   320 ;;                                              9 COMMON     5     1      4
   321 ;;                                              0 BANK0      2     2      0
   322 ;;                            ___awdiv (ARG)
   323 ;; ---------------------------------------------------------------------------------
   324 ;; (1) ___awdiv                                              9     5      4     300
   325 ;;                                              0 COMMON     9     5      4
   326 ;; ---------------------------------------------------------------------------------
   327 ;; (1) _Init                                                 0     0      0       0
   328 ;; ---------------------------------------------------------------------------------
   329 ;; Estimated maximum stack depth 1
   330 ;; ---------------------------------------------------------------------------------
   331                           
   332 ;; Call Graph Graphs:
   333                           
   334 ;; _main (ROOT)
   335 ;;   _Init
   336 ;;   _dht_get
   337 ;;     ___awdiv
   338 ;;   ___awmod
   339 ;;     ___awdiv (ARG)
   340 ;;   ___awdiv
   341 ;;
   342                           
   343 ;; Address spaces:
   344                           
   345 ;;Name               Size   Autos  Total    Cost      Usage
   346 ;;BANK3               60      0       0       9        0.0%
   347 ;;BITBANK3            60      0       0       8        0.0%
   348 ;;SFR3                 0      0       0       4        0.0%
   349 ;;BITSFR3              0      0       0       4        0.0%
   350 ;;BANK2               60      0       0      11        0.0%
   351 ;;BITBANK2            60      0       0      10        0.0%
   352 ;;SFR2                 0      0       0       5        0.0%
   353 ;;BITSFR2              0      0       0       5        0.0%
   354 ;;SFR1                 0      0       0       2        0.0%
   355 ;;BITSFR1              0      0       0       2        0.0%
   356 ;;BANK1               50      0       0       7        0.0%
   357 ;;BITBANK1            50      0       0       6        0.0%
   358 ;;CODE                 0      0       0       0        0.0%
   359 ;;DATA                 0      0      40      12        0.0%
   360 ;;ABS                  0      0      3E       3        0.0%
   361 ;;NULL                 0      0       0       0        0.0%
   362 ;;STACK                0      0       2       2        0.0%
   363 ;;BANK0               50     26      30       5       60.0%
   364 ;;BITBANK0            50      0       0       4        0.0%
   365 ;;SFR0                 0      0       0       1        0.0%
   366 ;;BITSFR0              0      0       0       1        0.0%
   367 ;;COMMON               E      E       E       1      100.0%
   368 ;;BITCOMMON            E      0       0       0        0.0%
   369 ;;EEDATA             100      0       0       0        0.0%
   370                           
   371                           	global	_main
   372                           psect	maintext,global,class=CODE,delta=2
   373                           global __pmaintext
   374  0689                     __pmaintext:
   375                           
   376 ;; *************** function _main *****************
   377 ;; Defined at:
   378 ;;		line 73 in file "main.c"
   379 ;; Parameters:    Size  Location     Type
   380 ;;		None
   381 ;; Auto vars:     Size  Location     Type
   382 ;;  decine          2   34[BANK0 ] unsigned int 
   383 ;;  unita           2   28[BANK0 ] unsigned int 
   384 ;;  SevenSeg       10   18[BANK0 ] unsigned char [10]
   385 ;;  temp            2   36[BANK0 ] int 
   386 ;;  umid            2   32[BANK0 ] int 
   387 ;; Return value:  Size  Location     Type
   388 ;;		None               void
   389 ;; Registers used:
   390 ;;		wreg, fsr0l, fsr0h, status,2, status,0, pclath, cstack
   391 ;; Tracked objects:
   392 ;;		On entry : 17F/0
   393 ;;		On exit  : 0/0
   394 ;;		Unchanged: 0/0
   395 ;; Data sizes:     COMMON   BANK0   BANK1   BANK3   BANK2
   396 ;;      Params:         0       0       0       0       0
   397 ;;      Locals:         0      20       0       0       0
   398 ;;      Temps:          0       4       0       0       0
   399 ;;      Totals:         0      24       0       0       0
   400 ;;Total ram usage:       24 bytes
   401 ;; Hardware stack levels required when called:    2
   402 ;; This function calls:
   403 ;;		_Init
   404 ;;		_dht_get
   405 ;;		___awmod
   406 ;;		___awdiv
   407 ;; This function is called by:
   408 ;;		Startup code after reset
   409 ;; This function uses a non-reentrant model
   410 ;;
   411                           psect	maintext
   412                           	file	"main.c"
   413                           	line	73
   414                           	global	__size_of_main
   415  00A4                     	__size_of_main	equ	__end_of_main-_main
   416                           	
   417  0689                     _main:	
   418                           	opt	stack 6
   419                           ; Regs used in _main: [wreg-fsr0h+status,2+status,0+pclath+cstack]
   420                           	line	74
   421                           	
   422  0689                     l3266:	
   423                           ;main.c: 74: Init();
   424  0689  120A  118A  2577   	fcall	_Init
              120A  118A         
   425                           	line	77
   426                           	
   427  068E                     l3268:	
   428                           ;main.c: 75: unsigned char SevenSeg[] = {0b10111111, 0b00000110, 0b11011011, 0b11001111,
   429                           ;main.c: 76: 0b01100110, 0b11101101, 0b11111100, 0b00000111,
   430                           ;main.c: 77: 0b11111111, 0b01100111};
   431  068E  3032               	movlw	(main@SevenSeg)&0ffh
   432  068F  0084               	movwf	fsr0
   433  0690  3046               	movlw	low(main@F919)
   434  0691  1283               	bcf	status, 5	;RP0=0, select bank0
   435  0692  1303               	bcf	status, 6	;RP1=0, select bank0
   436  0693  00AE               	movwf	(??_main+0)+0
   437  0694  0804               	movf	fsr0,w
   438  0695  00AF               	movwf	((??_main+0)+0+1)
   439  0696  300A               	movlw	10
   440  0697  00B0               	movwf	((??_main+0)+0+2)
   441  0698                     u2600:
   442  0698  082E               	movf	(??_main+0)+0,w
   443  0699  0084               	movwf	fsr0
   444  069A  1383               	bcf	status, 7	;select IRP bank0
   445                           	
   446  069B  0800               	movf	indf,w
   447  069C  00B1               	movwf	((??_main+0)+0+3)
   448  069D  0AAE               	incf	(??_main+0)+0,f
   449  069E  082F               	movf	((??_main+0)+0+1),w
   450  069F  0084               	movwf	fsr0
   451                           	
   452  06A0  0831               	movf	((??_main+0)+0+3),w
   453  06A1  0080               	movwf	indf
   454  06A2  0AAF               	incf	((??_main+0)+0+1),f
   455  06A3  0BB0               	decfsz	((??_main+0)+0+2),f
   456  06A4  2E98               	goto	u2600
   457                           	line	78
   458                           	
   459  06A5                     l3270:	
   460                           ;main.c: 78: int temp = 0, umid = 0;
   461  06A5  01C4               	clrf	(main@temp)
   462  06A6  01C5               	clrf	(main@temp+1)
   463                           	
   464  06A7                     l3272:	
   465  06A7  01C0               	clrf	(main@umid)
   466  06A8  01C1               	clrf	(main@umid+1)
   467  06A9  2EAA               	goto	l3274
   468                           	line	79
   469                           ;main.c: 79: while(1){
   470                           	
   471  06AA                     l578:	
   472                           	line	81
   473                           	
   474  06AA                     l3274:	
   475                           ;main.c: 81: if(dht_get(&temp, &umid)==1){
   476  06AA  3040               	movlw	(main@umid)&0ffh
   477  06AB  1283               	bcf	status, 5	;RP0=0, select bank0
   478  06AC  1303               	bcf	status, 6	;RP1=0, select bank0
   479  06AD  00AE               	movwf	(??_main+0)+0
   480  06AE  082E               	movf	(??_main+0)+0,w
   481  06AF  00F9               	movwf	(?_dht_get)
   482  06B0  3044               	movlw	(main@temp)&0ffh
   483  06B1  120A  118A  272D   	fcall	_dht_get
              120A  118A         
   484  06B6  3A01               	xorlw	01h
   485  06B7  1D03               	skipz
   486  06B8  2EBA               	goto	u2611
   487  06B9  2EBB               	goto	u2610
   488  06BA                     u2611:
   489  06BA  2F18               	goto	l579
   490  06BB                     u2610:
   491                           	line	84
   492                           	
   493  06BB                     l3276:	
   494                           ;main.c: 84: unsigned int unita = temp%10;
   495  06BB  300A               	movlw	low(0Ah)
   496  06BC  00F9               	movwf	(?___awmod)
   497  06BD  3000               	movlw	high(0Ah)
   498  06BE  00FA               	movwf	((?___awmod))+1
   499  06BF  1283               	bcf	status, 5	;RP0=0, select bank0
   500  06C0  1303               	bcf	status, 6	;RP1=0, select bank0
   501  06C1  0845               	movf	(main@temp+1),w
   502  06C2  01FC               	clrf	1+(?___awmod)+02h
   503  06C3  07FC               	addwf	1+(?___awmod)+02h
   504  06C4  0844               	movf	(main@temp),w
   505  06C5  01FB               	clrf	0+(?___awmod)+02h
   506  06C6  07FB               	addwf	0+(?___awmod)+02h
   507                           
   508  06C7  120A  118A  25AD   	fcall	___awmod
              120A  118A         
   509  06CC  087A               	movf	(1+(?___awmod)),w
   510  06CD  1283               	bcf	status, 5	;RP0=0, select bank0
   511  06CE  1303               	bcf	status, 6	;RP1=0, select bank0
   512  06CF  01BD               	clrf	(main@unita+1)
   513  06D0  07BD               	addwf	(main@unita+1)
   514  06D1  0879               	movf	(0+(?___awmod)),w
   515  06D2  01BC               	clrf	(main@unita)
   516  06D3  07BC               	addwf	(main@unita)
   517                           
   518                           	line	85
   519                           ;main.c: 85: unsigned int decine = (temp/10)%10;
   520  06D4  300A               	movlw	low(0Ah)
   521  06D5  00F9               	movwf	(?___awmod)
   522  06D6  3000               	movlw	high(0Ah)
   523  06D7  00FA               	movwf	((?___awmod))+1
   524  06D8  300A               	movlw	low(0Ah)
   525  06D9  00F0               	movwf	(?___awdiv)
   526  06DA  3000               	movlw	high(0Ah)
   527  06DB  00F1               	movwf	((?___awdiv))+1
   528  06DC  0845               	movf	(main@temp+1),w
   529  06DD  01F3               	clrf	1+(?___awdiv)+02h
   530  06DE  07F3               	addwf	1+(?___awdiv)+02h
   531  06DF  0844               	movf	(main@temp),w
   532  06E0  01F2               	clrf	0+(?___awdiv)+02h
   533  06E1  07F2               	addwf	0+(?___awdiv)+02h
   534                           
   535  06E2  120A  118A  2615   	fcall	___awdiv
              120A  118A         
   536  06E7  0871               	movf	(1+(?___awdiv)),w
   537  06E8  01FC               	clrf	1+(?___awmod)+02h
   538  06E9  07FC               	addwf	1+(?___awmod)+02h
   539  06EA  0870               	movf	(0+(?___awdiv)),w
   540  06EB  01FB               	clrf	0+(?___awmod)+02h
   541  06EC  07FB               	addwf	0+(?___awmod)+02h
   542                           
   543  06ED  120A  118A  25AD   	fcall	___awmod
              120A  118A         
   544  06F2  087A               	movf	(1+(?___awmod)),w
   545  06F3  1283               	bcf	status, 5	;RP0=0, select bank0
   546  06F4  1303               	bcf	status, 6	;RP1=0, select bank0
   547  06F5  01C3               	clrf	(main@decine+1)
   548  06F6  07C3               	addwf	(main@decine+1)
   549  06F7  0879               	movf	(0+(?___awmod)),w
   550  06F8  01C2               	clrf	(main@decine)
   551  06F9  07C2               	addwf	(main@decine)
   552                           
   553                           	line	86
   554                           	
   555  06FA                     l3278:	
   556                           ;main.c: 86: PORTAbits.RA2 = 1;
   557  06FA  1505               	bsf	(5),2	;volatile
   558                           	line	88
   559                           	
   560  06FB                     l3280:	
   561                           ;main.c: 88: PORTC = SevenSeg[unita];
   562  06FB  083C               	movf	(main@unita),w
   563  06FC  3E32               	addlw	main@SevenSeg&0ffh
   564  06FD  0084               	movwf	fsr0
   565  06FE  1383               	bcf	status, 7	;select IRP bank0
   566  06FF  0800               	movf	indf,w
   567  0700  0087               	movwf	(7)	;volatile
   568                           	line	89
   569                           	
   570  0701                     l3282:	
   571                           ;main.c: 89: PORTB = decine?SevenSeg[decine]:0;
   572  0701  0843               	movf	((main@decine+1)),w
   573  0702  0442               	iorwf	((main@decine)),w
   574  0703  1D03               	skipz
   575  0704  2F06               	goto	u2621
   576  0705  2F07               	goto	u2620
   577  0706                     u2621:
   578  0706  2F0A               	goto	l3286
   579  0707                     u2620:
   580                           	
   581  0707                     l3284:	
   582  0707  01BE               	clrf	(_main$1060)
   583  0708  01BF               	clrf	(_main$1060+1)
   584  0709  2F15               	goto	l3288
   585                           	
   586  070A                     l581:	
   587                           	
   588  070A                     l3286:	
   589  070A  0842               	movf	(main@decine),w
   590  070B  3E32               	addlw	main@SevenSeg&0ffh
   591  070C  0084               	movwf	fsr0
   592  070D  0800               	movf	indf,w
   593  070E  00AE               	movwf	(??_main+0)+0
   594  070F  01AF               	clrf	(??_main+0)+0+1
   595  0710  082E               	movf	0+(??_main+0)+0,w
   596  0711  00BE               	movwf	(_main$1060)
   597  0712  082F               	movf	1+(??_main+0)+0,w
   598  0713  00BF               	movwf	(_main$1060+1)
   599  0714  2F15               	goto	l3288
   600                           	
   601  0715                     l583:	
   602                           	
   603  0715                     l3288:	
   604  0715  083E               	movf	(_main$1060),w
   605  0716  0086               	movwf	(6)	;volatile
   606                           	line	90
   607                           ;main.c: 90: }
   608  0717  2F1C               	goto	l3290
   609                           	line	91
   610                           	
   611  0718                     l579:	
   612                           ;main.c: 91: else PORTAbits.RA2 = 0;
   613  0718  1283               	bcf	status, 5	;RP0=0, select bank0
   614  0719  1303               	bcf	status, 6	;RP1=0, select bank0
   615  071A  1105               	bcf	(5),2	;volatile
   616  071B  2F1C               	goto	l3290
   617                           	
   618  071C                     l584:	
   619                           	line	92
   620                           	
   621  071C                     l3290:	
   622                           ;main.c: 92: _delay((unsigned long)((2300)*(4000000/4000.0)));
   623                           	opt asmopt_off
   624  071C  300C               movlw  12
   625  071D  00B0               movwf	((??_main+0)+0+2),f
   626  071E  30AC               movlw	172
   627  071F  00AF               movwf	((??_main+0)+0+1),f
   628  0720  3003               	movlw	3
   629  0721  00AE               movwf	((??_main+0)+0),f
   630  0722                     u2637:
   631  0722  0BAE               	decfsz	((??_main+0)+0),f
   632  0723  2F22               	goto	u2637
   633  0724  0BAF               	decfsz	((??_main+0)+0+1),f
   634  0725  2F22               	goto	u2637
   635  0726  0BB0               	decfsz	((??_main+0)+0+2),f
   636  0727  2F22               	goto	u2637
   637                           opt asmopt_on
   638                           
   639  0728  2EAA               	goto	l3274
   640                           	line	93
   641                           	
   642  0729                     l585:	
   643                           	line	79
   644  0729  2EAA               	goto	l3274
   645                           	
   646  072A                     l586:	
   647                           	line	94
   648                           	
   649  072A                     l587:	
   650                           	global	start
   651  072A  120A  118A  2800   	ljmp	start
   652                           	opt stack 0
   653                           GLOBAL	__end_of_main
   654  072D                     	__end_of_main:
   655 ;; =============== function _main ends ============
   656                           
   657                           	signat	_main,88
   658                           	global	_dht_get
   659                           psect	text159,local,class=CODE,delta=2
   660                           global __ptext159
   661  072D                     __ptext159:
   662                           
   663 ;; *************** function _dht_get *****************
   664 ;; Defined at:
   665 ;;		line 5 in file "dht.c"
   666 ;; Parameters:    Size  Location     Type
   667 ;;  tmp             1    wreg     PTR int 
   668 ;;		 -> main@temp(2), 
   669 ;;  RH              1    9[COMMON] PTR int 
   670 ;;		 -> main@umid(2), 
   671 ;; Auto vars:     Size  Location     Type
   672 ;;  tmp             1    6[BANK0 ] PTR int 
   673 ;;		 -> main@temp(2), 
   674 ;;  j               1   12[BANK0 ] unsigned char 
   675 ;;  i               1   13[BANK0 ] unsigned char 
   676 ;;  dati            5    7[BANK0 ] unsigned char [5]
   677 ;; Return value:  Size  Location     Type
   678 ;;                  1    wreg      unsigned char 
   679 ;; Registers used:
   680 ;;		wreg, fsr0l, fsr0h, status,2, status,0, pclath, cstack
   681 ;; Tracked objects:
   682 ;;		On entry : 0/0
   683 ;;		On exit  : 0/0
   684 ;;		Unchanged: 0/0
   685 ;; Data sizes:     COMMON   BANK0   BANK1   BANK3   BANK2
   686 ;;      Params:         1       0       0       0       0
   687 ;;      Locals:         0       8       0       0       0
   688 ;;      Temps:          0       6       0       0       0
   689 ;;      Totals:         1      14       0       0       0
   690 ;;Total ram usage:       15 bytes
   691 ;; Hardware stack levels used:    1
   692 ;; Hardware stack levels required when called:    1
   693 ;; This function calls:
   694 ;;		___awdiv
   695 ;; This function is called by:
   696 ;;		_main
   697 ;; This function uses a non-reentrant model
   698 ;;
   699                           psect	text159
   700                           	file	"dht.c"
   701                           	line	5
   702                           	global	__size_of_dht_get
   703  00D3                     	__size_of_dht_get	equ	__end_of_dht_get-_dht_get
   704                           	
   705  072D                     _dht_get:	
   706                           	opt	stack 6
   707                           ; Regs used in _dht_get: [wreg-fsr0h+status,2+status,0+pclath+cstack]
   708                           ;dht_get@tmp stored from wreg
   709                           	line	9
   710  072D  1283               	bcf	status, 5	;RP0=0, select bank0
   711  072E  1303               	bcf	status, 6	;RP1=0, select bank0
   712  072F  00A6               	movwf	(dht_get@tmp)
   713                           	
   714  0730                     l3218:	
   715                           ;dht.c: 6: char dati[5];
   716                           ;dht.c: 9: TRISAbits.TRISA1 = 0;
   717  0730  1683               	bsf	status, 5	;RP0=1, select bank1
   718  0731  1303               	bcf	status, 6	;RP1=0, select bank1
   719  0732  1085               	bcf	(133)^080h,1	;volatile
   720                           	line	10
   721                           ;dht.c: 10: PORTAbits.RA1 = 0;
   722  0733  1283               	bcf	status, 5	;RP0=0, select bank0
   723  0734  1303               	bcf	status, 6	;RP1=0, select bank0
   724  0735  1085               	bcf	(5),1	;volatile
   725                           	line	11
   726                           	
   727  0736                     l3220:	
   728                           ;dht.c: 11: _delay((unsigned long)((800)*(4000000/4000000.0)));
   729                           	opt asmopt_off
   730  0736  30C7               movlw	199
   731  0737  00A0               movwf	(??_dht_get+0)+0,f
   732  0738                     u2647:
   733  0738  0064               	clrwdt
   734  0739  0BA0               decfsz	(??_dht_get+0)+0,f
   735  073A  2F38               	goto	u2647
   736  073B  2F3C               	nop2	;nop
   737  073C  0064               	clrwdt
   738                           opt asmopt_on
   739                           
   740                           	line	12
   741                           	
   742  073D                     l3222:	
   743                           ;dht.c: 12: PORTAbits.RA1 = 1;
   744  073D  1283               	bcf	status, 5	;RP0=0, select bank0
   745  073E  1303               	bcf	status, 6	;RP1=0, select bank0
   746  073F  1485               	bsf	(5),1	;volatile
   747                           	line	13
   748                           	
   749  0740                     l3224:	
   750                           ;dht.c: 13: TRISAbits.TRISA1 = 1;
   751  0740  1683               	bsf	status, 5	;RP0=1, select bank1
   752  0741  1303               	bcf	status, 6	;RP1=0, select bank1
   753  0742  1485               	bsf	(133)^080h,1	;volatile
   754                           	line	16
   755                           ;dht.c: 16: _delay((unsigned long)((60)*(4000000/4000000.0)));
   756                           	opt asmopt_off
   757  0743  3013               movlw	19
   758  0744  1283               	bcf	status, 5	;RP0=0, select bank0
   759  0745  1303               	bcf	status, 6	;RP1=0, select bank0
   760  0746  00A0               movwf	(??_dht_get+0)+0,f
   761  0747                     u2657:
   762  0747  0BA0               decfsz	(??_dht_get+0)+0,f
   763  0748  2F47               	goto	u2657
   764  0749  2F4A               	nop2	;nop
   765                           opt asmopt_on
   766                           
   767                           	line	17
   768                           	
   769  074A                     l3226:	
   770                           ;dht.c: 17: if(PORTAbits.RA1) return 0;
   771  074A  1283               	bcf	status, 5	;RP0=0, select bank0
   772  074B  1303               	bcf	status, 6	;RP1=0, select bank0
   773  074C  1C85               	btfss	(5),1	;volatile
   774  074D  2F4F               	goto	u2521
   775  074E  2F50               	goto	u2520
   776  074F                     u2521:
   777  074F  2F53               	goto	l3232
   778  0750                     u2520:
   779                           	
   780  0750                     l3228:	
   781  0750  3000               	movlw	(0)
   782  0751  2FFF               	goto	l1159
   783                           	
   784  0752                     l3230:	
   785  0752  2FFF               	goto	l1159
   786                           	
   787  0753                     l1158:	
   788                           	line	18
   789                           	
   790  0753                     l3232:	
   791                           ;dht.c: 18: _delay((unsigned long)((120)*(4000000/4000000.0)));
   792                           	opt asmopt_off
   793  0753  3027               movlw	39
   794  0754  00A0               movwf	(??_dht_get+0)+0,f
   795  0755                     u2667:
   796  0755  0BA0               decfsz	(??_dht_get+0)+0,f
   797  0756  2F55               	goto	u2667
   798  0757  2F58               	nop2	;nop
   799                           opt asmopt_on
   800                           
   801                           	line	20
   802                           	
   803  0758                     l3234:	
   804                           ;dht.c: 20: for(char i = 0; i/5; i++){
   805  0758  1283               	bcf	status, 5	;RP0=0, select bank0
   806  0759  1303               	bcf	status, 6	;RP1=0, select bank0
   807  075A  01AD               	clrf	(dht_get@i)
   808  075B  2FB6               	goto	l3252
   809                           	
   810  075C                     l1161:	
   811                           	line	21
   812                           	
   813  075C                     l3236:	
   814                           ;dht.c: 21: dati[i] = 0;
   815  075C  1283               	bcf	status, 5	;RP0=0, select bank0
   816  075D  1303               	bcf	status, 6	;RP1=0, select bank0
   817  075E  082D               	movf	(dht_get@i),w
   818  075F  3E27               	addlw	dht_get@dati&0ffh
   819  0760  0084               	movwf	fsr0
   820  0761  1383               	bcf	status, 7	;select IRP bank0
   821  0762  0180               	clrf	indf
   822                           	line	22
   823                           	
   824  0763                     l3238:	
   825                           ;dht.c: 22: for(char j = 0; j/8; j++){
   826  0763  01AC               	clrf	(dht_get@j)
   827  0764  2F98               	goto	l3248
   828                           	
   829  0765                     l1163:	
   830                           	line	23
   831                           ;dht.c: 23: while(!PORTAbits.RA1);
   832  0765  2F66               	goto	l1164
   833                           	
   834  0766                     l1165:	
   835                           	
   836  0766                     l1164:	
   837  0766  1283               	bcf	status, 5	;RP0=0, select bank0
   838  0767  1303               	bcf	status, 6	;RP1=0, select bank0
   839  0768  1C85               	btfss	(5),1	;volatile
   840  0769  2F6B               	goto	u2531
   841  076A  2F6C               	goto	u2530
   842  076B                     u2531:
   843  076B  2F66               	goto	l1164
   844  076C                     u2530:
   845  076C  2F6D               	goto	l3240
   846                           	
   847  076D                     l1166:	
   848                           	line	24
   849                           	
   850  076D                     l3240:	
   851                           ;dht.c: 24: _delay((unsigned long)((45)*(4000000/4000000.0)));
   852                           	opt asmopt_off
   853  076D  300E               movlw	14
   854  076E  00A0               movwf	(??_dht_get+0)+0,f
   855  076F                     u2677:
   856  076F  0BA0               decfsz	(??_dht_get+0)+0,f
   857  0770  2F6F               	goto	u2677
   858  0771  2F72               	nop2	;nop
   859                           opt asmopt_on
   860                           
   861                           	line	25
   862                           	
   863  0772                     l3242:	
   864                           ;dht.c: 25: if(PORTAbits.RA1){
   865  0772  1283               	bcf	status, 5	;RP0=0, select bank0
   866  0773  1303               	bcf	status, 6	;RP1=0, select bank0
   867  0774  1C85               	btfss	(5),1	;volatile
   868  0775  2F77               	goto	u2541
   869  0776  2F78               	goto	u2540
   870  0777                     u2541:
   871  0777  2F93               	goto	l3246
   872  0778                     u2540:
   873                           	line	26
   874                           	
   875  0778                     l3244:	
   876                           ;dht.c: 26: dati [i] |= 1<<(7-j);
   877  0778  3001               	movlw	(01h)
   878  0779  00A0               	movwf	(??_dht_get+0)+0
   879  077A  032C               	decf	(dht_get@j),w
   880  077B  3AFF               	xorlw	0ffh
   881  077C  3E07               	addlw	07h
   882  077D  3E01               	addlw	1
   883  077E  2F81               	goto	u2554
   884  077F                     u2555:
   885  077F  1003               	clrc
   886  0780  0DA0               	rlf	(??_dht_get+0)+0,f
   887  0781                     u2554:
   888  0781  3EFF               	addlw	-1
   889  0782  1D03               	skipz
   890  0783  2F7F               	goto	u2555
   891  0784  0820               	movf	0+(??_dht_get+0)+0,w
   892  0785  00A1               	movwf	(??_dht_get+1)+0
   893  0786  082D               	movf	(dht_get@i),w
   894  0787  3E27               	addlw	dht_get@dati&0ffh
   895  0788  0084               	movwf	fsr0
   896  0789  0821               	movf	(??_dht_get+1)+0,w
   897  078A  1383               	bcf	status, 7	;select IRP bank0
   898  078B  0480               	iorwf	indf,f
   899                           	line	27
   900                           ;dht.c: 27: while(PORTAbits.RA1);
   901  078C  2F8D               	goto	l1168
   902                           	
   903  078D                     l1169:	
   904                           	
   905  078D                     l1168:	
   906  078D  1885               	btfsc	(5),1	;volatile
   907  078E  2F90               	goto	u2561
   908  078F  2F91               	goto	u2560
   909  0790                     u2561:
   910  0790  2F8D               	goto	l1168
   911  0791                     u2560:
   912  0791  2F93               	goto	l3246
   913                           	
   914  0792                     l1170:	
   915  0792  2F93               	goto	l3246
   916                           	line	28
   917                           	
   918  0793                     l1167:	
   919                           	line	22
   920                           	
   921  0793                     l3246:	
   922  0793  3001               	movlw	(01h)
   923  0794  00A0               	movwf	(??_dht_get+0)+0
   924  0795  0820               	movf	(??_dht_get+0)+0,w
   925  0796  07AC               	addwf	(dht_get@j),f
   926  0797  2F98               	goto	l3248
   927                           	
   928  0798                     l1162:	
   929                           	
   930  0798                     l3248:	
   931  0798  3008               	movlw	low(08h)
   932  0799  00F0               	movwf	(?___awdiv)
   933  079A  3000               	movlw	high(08h)
   934  079B  00F1               	movwf	((?___awdiv))+1
   935  079C  082C               	movf	(dht_get@j),w
   936  079D  00A0               	movwf	(??_dht_get+0)+0
   937  079E  01A1               	clrf	(??_dht_get+0)+0+1
   938  079F  0820               	movf	0+(??_dht_get+0)+0,w
   939  07A0  00F2               	movwf	0+(?___awdiv)+02h
   940  07A1  0821               	movf	1+(??_dht_get+0)+0,w
   941  07A2  00F3               	movwf	1+(?___awdiv)+02h
   942  07A3  120A  118A  2615   	fcall	___awdiv
              120A  118A         
   943  07A8  0871               	movf	((1+(?___awdiv))),w
   944  07A9  0470               	iorwf	((0+(?___awdiv))),w
   945  07AA  1D03               	skipz
   946  07AB  2FAD               	goto	u2571
   947  07AC  2FAE               	goto	u2570
   948  07AD                     u2571:
   949  07AD  2F66               	goto	l1164
   950  07AE                     u2570:
   951  07AE  2FAF               	goto	l3250
   952                           	
   953  07AF                     l1171:	
   954                           	line	20
   955                           	
   956  07AF                     l3250:	
   957  07AF  3001               	movlw	(01h)
   958  07B0  1283               	bcf	status, 5	;RP0=0, select bank0
   959  07B1  1303               	bcf	status, 6	;RP1=0, select bank0
   960  07B2  00A0               	movwf	(??_dht_get+0)+0
   961  07B3  0820               	movf	(??_dht_get+0)+0,w
   962  07B4  07AD               	addwf	(dht_get@i),f
   963  07B5  2FB6               	goto	l3252
   964                           	
   965  07B6                     l1160:	
   966                           	
   967  07B6                     l3252:	
   968  07B6  3005               	movlw	low(05h)
   969  07B7  00F0               	movwf	(?___awdiv)
   970  07B8  3000               	movlw	high(05h)
   971  07B9  00F1               	movwf	((?___awdiv))+1
   972  07BA  082D               	movf	(dht_get@i),w
   973  07BB  00A0               	movwf	(??_dht_get+0)+0
   974  07BC  01A1               	clrf	(??_dht_get+0)+0+1
   975  07BD  0820               	movf	0+(??_dht_get+0)+0,w
   976  07BE  00F2               	movwf	0+(?___awdiv)+02h
   977  07BF  0821               	movf	1+(??_dht_get+0)+0,w
   978  07C0  00F3               	movwf	1+(?___awdiv)+02h
   979  07C1  120A  118A  2615   	fcall	___awdiv
              120A  118A         
   980  07C6  0871               	movf	((1+(?___awdiv))),w
   981  07C7  0470               	iorwf	((0+(?___awdiv))),w
   982  07C8  1D03               	skipz
   983  07C9  2FCB               	goto	u2581
   984  07CA  2FCC               	goto	u2580
   985  07CB                     u2581:
   986  07CB  2F5C               	goto	l3236
   987  07CC                     u2580:
   988  07CC  2FCD               	goto	l3254
   989                           	
   990  07CD                     l1172:	
   991                           	line	31
   992                           	
   993  07CD                     l3254:	
   994                           ;dht.c: 28: }
   995                           ;dht.c: 29: }
   996                           ;dht.c: 30: }
   997                           ;dht.c: 31: if(dati[4]!=(dati[1]+dati[0]+dati[3]+dati[2])){
   998  07CD  1283               	bcf	status, 5	;RP0=0, select bank0
   999  07CE  1303               	bcf	status, 6	;RP1=0, select bank0
  1000  07CF  0828               	movf	0+(dht_get@dati)+01h,w
  1001  07D0  0727               	addwf	(dht_get@dati),w
  1002  07D1  00A0               	movwf	(??_dht_get+0)+0
  1003  07D2  01A1               	clrf	(??_dht_get+0)+0+1
  1004  07D3  0DA1               	rlf	1+(??_dht_get+0)+0,f
  1005                           	
  1006  07D4  082A               	movf	0+(dht_get@dati)+03h,w
  1007  07D5  0720               	addwf	0+(??_dht_get+0)+0,w
  1008  07D6  00A2               	movwf	(??_dht_get+2)+0
  1009  07D7  3000               	movlw	0
  1010  07D8  1803               	skipnc
  1011  07D9  3001               	movlw	1
  1012  07DA  0721               	addwf	1+(??_dht_get+0)+0,w
  1013  07DB  00A3               	movwf	1+(??_dht_get+2)+0
  1014  07DC  0829               	movf	0+(dht_get@dati)+02h,w
  1015  07DD  0722               	addwf	0+(??_dht_get+2)+0,w
  1016  07DE  00A4               	movwf	(??_dht_get+4)+0
  1017  07DF  3000               	movlw	0
  1018  07E0  1803               	skipnc
  1019  07E1  3001               	movlw	1
  1020  07E2  0723               	addwf	1+(??_dht_get+2)+0,w
  1021  07E3  00A5               	movwf	1+(??_dht_get+4)+0
  1022  07E4  082B               	movf	0+(dht_get@dati)+04h,w
  1023  07E5  0624               	xorwf	0+(??_dht_get+4)+0,w
  1024  07E6  0425               	iorwf	1+(??_dht_get+4)+0,w
  1025  07E7  1903               	skipnz
  1026  07E8  2FEA               	goto	u2591
  1027  07E9  2FEB               	goto	u2590
  1028  07EA                     u2591:
  1029  07EA  2FEE               	goto	l3260
  1030  07EB                     u2590:
  1031                           	line	32
  1032                           	
  1033  07EB                     l3256:	
  1034                           ;dht.c: 32: return 0;
  1035  07EB  3000               	movlw	(0)
  1036  07EC  2FFF               	goto	l1159
  1037                           	
  1038  07ED                     l3258:	
  1039  07ED  2FFF               	goto	l1159
  1040                           	line	33
  1041                           	
  1042  07EE                     l1173:	
  1043                           	line	34
  1044                           	
  1045  07EE                     l3260:	
  1046                           ;dht.c: 33: }
  1047                           ;dht.c: 34: *tmp = (int) ((dati[2]<<8)|dati[3]);
  1048  07EE  0826               	movf	(dht_get@tmp),w
  1049  07EF  0084               	movwf	fsr0
  1050  07F0  082A               	movf	0+(dht_get@dati)+03h,w
  1051  07F1  1383               	bcf	status, 7	;select IRP bank0
  1052  07F2  0080               	movwf	indf
  1053  07F3  0A84               	incf	fsr0,f
  1054  07F4  0829               	movf	0+(dht_get@dati)+02h,w
  1055  07F5  0080               	movwf	indf
  1056                           	line	35
  1057                           ;dht.c: 35: *RH = (int) ((dati[0]<<8)|dati[1]);
  1058  07F6  0879               	movf	(dht_get@RH),w
  1059  07F7  0084               	movwf	fsr0
  1060  07F8  0828               	movf	0+(dht_get@dati)+01h,w
  1061  07F9  0080               	movwf	indf
  1062  07FA  0A84               	incf	fsr0,f
  1063  07FB  0827               	movf	(dht_get@dati),w
  1064  07FC  0080               	movwf	indf
  1065                           	line	36
  1066                           	
  1067  07FD                     l3262:	
  1068                           ;dht.c: 36: return 1;
  1069  07FD  3001               	movlw	(01h)
  1070  07FE  2FFF               	goto	l1159
  1071                           	
  1072  07FF                     l3264:	
  1073                           	line	37
  1074                           	
  1075  07FF                     l1159:	
  1076  07FF  0008               	return
  1077                           	opt stack 0
  1078                           GLOBAL	__end_of_dht_get
  1079  0800                     	__end_of_dht_get:
  1080 ;; =============== function _dht_get ends ============
  1081                           
  1082                           	signat	_dht_get,8313
  1083                           	global	___awmod
  1084                           psect	text160,local,class=CODE,delta=2
  1085                           global __ptext160
  1086  05AD                     __ptext160:
  1087                           
  1088 ;; *************** function ___awmod *****************
  1089 ;; Defined at:
  1090 ;;		line 5 in file "C:\Program Files (x86)\HI-TECH Software\PICC\9.82\sources\awmod.c"
  1091 ;; Parameters:    Size  Location     Type
  1092 ;;  divisor         2    9[COMMON] int 
  1093 ;;  dividend        2   11[COMMON] int 
  1094 ;; Auto vars:     Size  Location     Type
  1095 ;;  sign            1    1[BANK0 ] unsigned char 
  1096 ;;  counter         1    0[BANK0 ] unsigned char 
  1097 ;; Return value:  Size  Location     Type
  1098 ;;                  2    9[COMMON] int 
  1099 ;; Registers used:
  1100 ;;		wreg, status,2, status,0
  1101 ;; Tracked objects:
  1102 ;;		On entry : 0/0
  1103 ;;		On exit  : 0/0
  1104 ;;		Unchanged: 0/0
  1105 ;; Data sizes:     COMMON   BANK0   BANK1   BANK3   BANK2
  1106 ;;      Params:         4       0       0       0       0
  1107 ;;      Locals:         0       2       0       0       0
  1108 ;;      Temps:          1       0       0       0       0
  1109 ;;      Totals:         5       2       0       0       0
  1110 ;;Total ram usage:        7 bytes
  1111 ;; Hardware stack levels used:    1
  1112 ;; This function calls:
  1113 ;;		Nothing
  1114 ;; This function is called by:
  1115 ;;		_main
  1116 ;; This function uses a non-reentrant model
  1117 ;;
  1118                           psect	text160
  1119                           	file	"C:\Program Files (x86)\HI-TECH Software\PICC\9.82\sources\awmod.c"
  1120                           	line	5
  1121                           	global	__size_of___awmod
  1122  0068                     	__size_of___awmod	equ	__end_of___awmod-___awmod
  1123                           	
  1124  05AD                     ___awmod:	
  1125                           	opt	stack 7
  1126                           ; Regs used in ___awmod: [wreg+status,2+status,0]
  1127                           	line	8
  1128                           	
  1129  05AD                     l3184:	
  1130  05AD  1283               	bcf	status, 5	;RP0=0, select bank0
  1131  05AE  1303               	bcf	status, 6	;RP1=0, select bank0
  1132  05AF  01A1               	clrf	(___awmod@sign)
  1133                           	line	9
  1134  05B0  1FFC               	btfss	(___awmod@dividend+1),7
  1135  05B1  2DB3               	goto	u2431
  1136  05B2  2DB4               	goto	u2430
  1137  05B3                     u2431:
  1138  05B3  2DBD               	goto	l3188
  1139  05B4                     u2430:
  1140                           	line	10
  1141                           	
  1142  05B4                     l3186:	
  1143  05B4  09FB               	comf	(___awmod@dividend),f
  1144  05B5  09FC               	comf	(___awmod@dividend+1),f
  1145  05B6  0AFB               	incf	(___awmod@dividend),f
  1146  05B7  1903               	skipnz
  1147  05B8  0AFC               	incf	(___awmod@dividend+1),f
  1148                           	line	11
  1149  05B9  01A1               	clrf	(___awmod@sign)
  1150  05BA  1403               	bsf	status,0
  1151  05BB  0DA1               	rlf	(___awmod@sign),f
  1152  05BC  2DBD               	goto	l3188
  1153                           	line	12
  1154                           	
  1155  05BD                     l1960:	
  1156                           	line	13
  1157                           	
  1158  05BD                     l3188:	
  1159  05BD  1FFA               	btfss	(___awmod@divisor+1),7
  1160  05BE  2DC0               	goto	u2441
  1161  05BF  2DC1               	goto	u2440
  1162  05C0                     u2441:
  1163  05C0  2DC7               	goto	l3192
  1164  05C1                     u2440:
  1165                           	line	14
  1166                           	
  1167  05C1                     l3190:	
  1168  05C1  09F9               	comf	(___awmod@divisor),f
  1169  05C2  09FA               	comf	(___awmod@divisor+1),f
  1170  05C3  0AF9               	incf	(___awmod@divisor),f
  1171  05C4  1903               	skipnz
  1172  05C5  0AFA               	incf	(___awmod@divisor+1),f
  1173  05C6  2DC7               	goto	l3192
  1174                           	
  1175  05C7                     l1961:	
  1176                           	line	15
  1177                           	
  1178  05C7                     l3192:	
  1179  05C7  087A               	movf	(___awmod@divisor+1),w
  1180  05C8  0479               	iorwf	(___awmod@divisor),w
  1181  05C9  1903               	skipnz
  1182  05CA  2DCC               	goto	u2451
  1183  05CB  2DCD               	goto	u2450
  1184  05CC                     u2451:
  1185  05CC  2E03               	goto	l3210
  1186  05CD                     u2450:
  1187                           	line	16
  1188                           	
  1189  05CD                     l3194:	
  1190  05CD  01A0               	clrf	(___awmod@counter)
  1191  05CE  1403               	bsf	status,0
  1192  05CF  0DA0               	rlf	(___awmod@counter),f
  1193                           	line	17
  1194  05D0  2DDD               	goto	l3200
  1195                           	
  1196  05D1                     l1964:	
  1197                           	line	18
  1198                           	
  1199  05D1                     l3196:	
  1200  05D1  3001               	movlw	01h
  1201                           	
  1202  05D2                     u2465:
  1203  05D2  1003               	clrc
  1204  05D3  0DF9               	rlf	(___awmod@divisor),f
  1205  05D4  0DFA               	rlf	(___awmod@divisor+1),f
  1206  05D5  3EFF               	addlw	-1
  1207  05D6  1D03               	skipz
  1208  05D7  2DD2               	goto	u2465
  1209                           	line	19
  1210                           	
  1211  05D8                     l3198:	
  1212  05D8  3001               	movlw	(01h)
  1213  05D9  00FD               	movwf	(??___awmod+0)+0
  1214  05DA  087D               	movf	(??___awmod+0)+0,w
  1215  05DB  07A0               	addwf	(___awmod@counter),f
  1216  05DC  2DDD               	goto	l3200
  1217                           	line	20
  1218                           	
  1219  05DD                     l1963:	
  1220                           	line	17
  1221                           	
  1222  05DD                     l3200:	
  1223  05DD  1FFA               	btfss	(___awmod@divisor+1),(15)&7
  1224  05DE  2DE0               	goto	u2471
  1225  05DF  2DE1               	goto	u2470
  1226  05E0                     u2471:
  1227  05E0  2DD1               	goto	l3196
  1228  05E1                     u2470:
  1229  05E1  2DE3               	goto	l3202
  1230                           	
  1231  05E2                     l1965:	
  1232  05E2  2DE3               	goto	l3202
  1233                           	line	21
  1234                           	
  1235  05E3                     l1966:	
  1236                           	line	22
  1237                           	
  1238  05E3                     l3202:	
  1239  05E3  087A               	movf	(___awmod@divisor+1),w
  1240  05E4  027C               	subwf	(___awmod@dividend+1),w
  1241  05E5  1D03               	skipz
  1242  05E6  2DE9               	goto	u2485
  1243  05E7  0879               	movf	(___awmod@divisor),w
  1244  05E8  027B               	subwf	(___awmod@dividend),w
  1245  05E9                     u2485:
  1246  05E9  1C03               	skipc
  1247  05EA  2DEC               	goto	u2481
  1248  05EB  2DED               	goto	u2480
  1249  05EC                     u2481:
  1250  05EC  2DF4               	goto	l3206
  1251  05ED                     u2480:
  1252                           	line	23
  1253                           	
  1254  05ED                     l3204:	
  1255  05ED  0879               	movf	(___awmod@divisor),w
  1256  05EE  02FB               	subwf	(___awmod@dividend),f
  1257  05EF  087A               	movf	(___awmod@divisor+1),w
  1258  05F0  1C03               	skipc
  1259  05F1  03FC               	decf	(___awmod@dividend+1),f
  1260  05F2  02FC               	subwf	(___awmod@dividend+1),f
  1261  05F3  2DF4               	goto	l3206
  1262                           	
  1263  05F4                     l1967:	
  1264                           	line	24
  1265                           	
  1266  05F4                     l3206:	
  1267  05F4  3001               	movlw	01h
  1268                           	
  1269  05F5                     u2495:
  1270  05F5  1003               	clrc
  1271  05F6  0CFA               	rrf	(___awmod@divisor+1),f
  1272  05F7  0CF9               	rrf	(___awmod@divisor),f
  1273  05F8  3EFF               	addlw	-1
  1274  05F9  1D03               	skipz
  1275  05FA  2DF5               	goto	u2495
  1276                           	line	25
  1277                           	
  1278  05FB                     l3208:	
  1279  05FB  3001               	movlw	low(01h)
  1280  05FC  02A0               	subwf	(___awmod@counter),f
  1281  05FD  1D03               	btfss	status,2
  1282  05FE  2E00               	goto	u2501
  1283  05FF  2E01               	goto	u2500
  1284  0600                     u2501:
  1285  0600  2DE3               	goto	l3202
  1286  0601                     u2500:
  1287  0601  2E03               	goto	l3210
  1288                           	
  1289  0602                     l1968:	
  1290  0602  2E03               	goto	l3210
  1291                           	line	26
  1292                           	
  1293  0603                     l1962:	
  1294                           	line	27
  1295                           	
  1296  0603                     l3210:	
  1297  0603  0821               	movf	(___awmod@sign),w
  1298  0604  1D03               	skipz
  1299  0605  2E07               	goto	u2510
  1300  0606  2E0D               	goto	l3214
  1301  0607                     u2510:
  1302                           	line	28
  1303                           	
  1304  0607                     l3212:	
  1305  0607  09FB               	comf	(___awmod@dividend),f
  1306  0608  09FC               	comf	(___awmod@dividend+1),f
  1307  0609  0AFB               	incf	(___awmod@dividend),f
  1308  060A  1903               	skipnz
  1309  060B  0AFC               	incf	(___awmod@dividend+1),f
  1310  060C  2E0D               	goto	l3214
  1311                           	
  1312  060D                     l1969:	
  1313                           	line	29
  1314                           	
  1315  060D                     l3214:	
  1316  060D  087C               	movf	(___awmod@dividend+1),w
  1317  060E  01FA               	clrf	(?___awmod+1)
  1318  060F  07FA               	addwf	(?___awmod+1)
  1319  0610  087B               	movf	(___awmod@dividend),w
  1320  0611  01F9               	clrf	(?___awmod)
  1321  0612  07F9               	addwf	(?___awmod)
  1322                           
  1323  0613  2E14               	goto	l1970
  1324                           	
  1325  0614                     l3216:	
  1326                           	line	30
  1327                           	
  1328  0614                     l1970:	
  1329  0614  0008               	return
  1330                           	opt stack 0
  1331                           GLOBAL	__end_of___awmod
  1332  0615                     	__end_of___awmod:
  1333 ;; =============== function ___awmod ends ============
  1334                           
  1335                           	signat	___awmod,8314
  1336                           	global	___awdiv
  1337                           psect	text161,local,class=CODE,delta=2
  1338                           global __ptext161
  1339  0615                     __ptext161:
  1340                           
  1341 ;; *************** function ___awdiv *****************
  1342 ;; Defined at:
  1343 ;;		line 5 in file "C:\Program Files (x86)\HI-TECH Software\PICC\9.82\sources\awdiv.c"
  1344 ;; Parameters:    Size  Location     Type
  1345 ;;  divisor         2    0[COMMON] int 
  1346 ;;  dividend        2    2[COMMON] int 
  1347 ;; Auto vars:     Size  Location     Type
  1348 ;;  quotient        2    7[COMMON] int 
  1349 ;;  sign            1    6[COMMON] unsigned char 
  1350 ;;  counter         1    5[COMMON] unsigned char 
  1351 ;; Return value:  Size  Location     Type
  1352 ;;                  2    0[COMMON] int 
  1353 ;; Registers used:
  1354 ;;		wreg, status,2, status,0
  1355 ;; Tracked objects:
  1356 ;;		On entry : 0/0
  1357 ;;		On exit  : 0/0
  1358 ;;		Unchanged: 0/0
  1359 ;; Data sizes:     COMMON   BANK0   BANK1   BANK3   BANK2
  1360 ;;      Params:         4       0       0       0       0
  1361 ;;      Locals:         4       0       0       0       0
  1362 ;;      Temps:          1       0       0       0       0
  1363 ;;      Totals:         9       0       0       0       0
  1364 ;;Total ram usage:        9 bytes
  1365 ;; Hardware stack levels used:    1
  1366 ;; This function calls:
  1367 ;;		Nothing
  1368 ;; This function is called by:
  1369 ;;		_main
  1370 ;;		_dht_get
  1371 ;; This function uses a non-reentrant model
  1372 ;;
  1373                           psect	text161
  1374                           	file	"C:\Program Files (x86)\HI-TECH Software\PICC\9.82\sources\awdiv.c"
  1375                           	line	5
  1376                           	global	__size_of___awdiv
  1377  0074                     	__size_of___awdiv	equ	__end_of___awdiv-___awdiv
  1378                           	
  1379  0615                     ___awdiv:	
  1380                           	opt	stack 7
  1381                           ; Regs used in ___awdiv: [wreg+status,2+status,0]
  1382                           	line	9
  1383                           	
  1384  0615                     l3144:	
  1385  0615  01F6               	clrf	(___awdiv@sign)
  1386                           	line	10
  1387  0616  1FF1               	btfss	(___awdiv@divisor+1),7
  1388  0617  2E19               	goto	u2331
  1389  0618  2E1A               	goto	u2330
  1390  0619                     u2331:
  1391  0619  2E23               	goto	l3148
  1392  061A                     u2330:
  1393                           	line	11
  1394                           	
  1395  061A                     l3146:	
  1396  061A  09F0               	comf	(___awdiv@divisor),f
  1397  061B  09F1               	comf	(___awdiv@divisor+1),f
  1398  061C  0AF0               	incf	(___awdiv@divisor),f
  1399  061D  1903               	skipnz
  1400  061E  0AF1               	incf	(___awdiv@divisor+1),f
  1401                           	line	12
  1402  061F  01F6               	clrf	(___awdiv@sign)
  1403  0620  1403               	bsf	status,0
  1404  0621  0DF6               	rlf	(___awdiv@sign),f
  1405  0622  2E23               	goto	l3148
  1406                           	line	13
  1407                           	
  1408  0623                     l1892:	
  1409                           	line	14
  1410                           	
  1411  0623                     l3148:	
  1412  0623  1FF3               	btfss	(___awdiv@dividend+1),7
  1413  0624  2E26               	goto	u2341
  1414  0625  2E27               	goto	u2340
  1415  0626                     u2341:
  1416  0626  2E31               	goto	l3154
  1417  0627                     u2340:
  1418                           	line	15
  1419                           	
  1420  0627                     l3150:	
  1421  0627  09F2               	comf	(___awdiv@dividend),f
  1422  0628  09F3               	comf	(___awdiv@dividend+1),f
  1423  0629  0AF2               	incf	(___awdiv@dividend),f
  1424  062A  1903               	skipnz
  1425  062B  0AF3               	incf	(___awdiv@dividend+1),f
  1426                           	line	16
  1427                           	
  1428  062C                     l3152:	
  1429  062C  3001               	movlw	(01h)
  1430  062D  00F4               	movwf	(??___awdiv+0)+0
  1431  062E  0874               	movf	(??___awdiv+0)+0,w
  1432  062F  06F6               	xorwf	(___awdiv@sign),f
  1433  0630  2E31               	goto	l3154
  1434                           	line	17
  1435                           	
  1436  0631                     l1893:	
  1437                           	line	18
  1438                           	
  1439  0631                     l3154:	
  1440  0631  01F7               	clrf	(___awdiv@quotient)
  1441  0632  01F8               	clrf	(___awdiv@quotient+1)
  1442                           	line	19
  1443                           	
  1444  0633                     l3156:	
  1445  0633  0871               	movf	(___awdiv@divisor+1),w
  1446  0634  0470               	iorwf	(___awdiv@divisor),w
  1447  0635  1903               	skipnz
  1448  0636  2E38               	goto	u2351
  1449  0637  2E39               	goto	u2350
  1450  0638                     u2351:
  1451  0638  2E77               	goto	l3176
  1452  0639                     u2350:
  1453                           	line	20
  1454                           	
  1455  0639                     l3158:	
  1456  0639  01F5               	clrf	(___awdiv@counter)
  1457  063A  1403               	bsf	status,0
  1458  063B  0DF5               	rlf	(___awdiv@counter),f
  1459                           	line	21
  1460  063C  2E49               	goto	l3164
  1461                           	
  1462  063D                     l1896:	
  1463                           	line	22
  1464                           	
  1465  063D                     l3160:	
  1466  063D  3001               	movlw	01h
  1467                           	
  1468  063E                     u2365:
  1469  063E  1003               	clrc
  1470  063F  0DF0               	rlf	(___awdiv@divisor),f
  1471  0640  0DF1               	rlf	(___awdiv@divisor+1),f
  1472  0641  3EFF               	addlw	-1
  1473  0642  1D03               	skipz
  1474  0643  2E3E               	goto	u2365
  1475                           	line	23
  1476                           	
  1477  0644                     l3162:	
  1478  0644  3001               	movlw	(01h)
  1479  0645  00F4               	movwf	(??___awdiv+0)+0
  1480  0646  0874               	movf	(??___awdiv+0)+0,w
  1481  0647  07F5               	addwf	(___awdiv@counter),f
  1482  0648  2E49               	goto	l3164
  1483                           	line	24
  1484                           	
  1485  0649                     l1895:	
  1486                           	line	21
  1487                           	
  1488  0649                     l3164:	
  1489  0649  1FF1               	btfss	(___awdiv@divisor+1),(15)&7
  1490  064A  2E4C               	goto	u2371
  1491  064B  2E4D               	goto	u2370
  1492  064C                     u2371:
  1493  064C  2E3D               	goto	l3160
  1494  064D                     u2370:
  1495  064D  2E4F               	goto	l3166
  1496                           	
  1497  064E                     l1897:	
  1498  064E  2E4F               	goto	l3166
  1499                           	line	25
  1500                           	
  1501  064F                     l1898:	
  1502                           	line	26
  1503                           	
  1504  064F                     l3166:	
  1505  064F  3001               	movlw	01h
  1506                           	
  1507  0650                     u2385:
  1508  0650  1003               	clrc
  1509  0651  0DF7               	rlf	(___awdiv@quotient),f
  1510  0652  0DF8               	rlf	(___awdiv@quotient+1),f
  1511  0653  3EFF               	addlw	-1
  1512  0654  1D03               	skipz
  1513  0655  2E50               	goto	u2385
  1514                           	line	27
  1515  0656  0871               	movf	(___awdiv@divisor+1),w
  1516  0657  0273               	subwf	(___awdiv@dividend+1),w
  1517  0658  1D03               	skipz
  1518  0659  2E5C               	goto	u2395
  1519  065A  0870               	movf	(___awdiv@divisor),w
  1520  065B  0272               	subwf	(___awdiv@dividend),w
  1521  065C                     u2395:
  1522  065C  1C03               	skipc
  1523  065D  2E5F               	goto	u2391
  1524  065E  2E60               	goto	u2390
  1525  065F                     u2391:
  1526  065F  2E68               	goto	l3172
  1527  0660                     u2390:
  1528                           	line	28
  1529                           	
  1530  0660                     l3168:	
  1531  0660  0870               	movf	(___awdiv@divisor),w
  1532  0661  02F2               	subwf	(___awdiv@dividend),f
  1533  0662  0871               	movf	(___awdiv@divisor+1),w
  1534  0663  1C03               	skipc
  1535  0664  03F3               	decf	(___awdiv@dividend+1),f
  1536  0665  02F3               	subwf	(___awdiv@dividend+1),f
  1537                           	line	29
  1538                           	
  1539  0666                     l3170:	
  1540  0666  1477               	bsf	(___awdiv@quotient)+(0/8),(0)&7
  1541  0667  2E68               	goto	l3172
  1542                           	line	30
  1543                           	
  1544  0668                     l1899:	
  1545                           	line	31
  1546                           	
  1547  0668                     l3172:	
  1548  0668  3001               	movlw	01h
  1549                           	
  1550  0669                     u2405:
  1551  0669  1003               	clrc
  1552  066A  0CF1               	rrf	(___awdiv@divisor+1),f
  1553  066B  0CF0               	rrf	(___awdiv@divisor),f
  1554  066C  3EFF               	addlw	-1
  1555  066D  1D03               	skipz
  1556  066E  2E69               	goto	u2405
  1557                           	line	32
  1558                           	
  1559  066F                     l3174:	
  1560  066F  3001               	movlw	low(01h)
  1561  0670  02F5               	subwf	(___awdiv@counter),f
  1562  0671  1D03               	btfss	status,2
  1563  0672  2E74               	goto	u2411
  1564  0673  2E75               	goto	u2410
  1565  0674                     u2411:
  1566  0674  2E4F               	goto	l3166
  1567  0675                     u2410:
  1568  0675  2E77               	goto	l3176
  1569                           	
  1570  0676                     l1900:	
  1571  0676  2E77               	goto	l3176
  1572                           	line	33
  1573                           	
  1574  0677                     l1894:	
  1575                           	line	34
  1576                           	
  1577  0677                     l3176:	
  1578  0677  0876               	movf	(___awdiv@sign),w
  1579  0678  1D03               	skipz
  1580  0679  2E7B               	goto	u2420
  1581  067A  2E81               	goto	l3180
  1582  067B                     u2420:
  1583                           	line	35
  1584                           	
  1585  067B                     l3178:	
  1586  067B  09F7               	comf	(___awdiv@quotient),f
  1587  067C  09F8               	comf	(___awdiv@quotient+1),f
  1588  067D  0AF7               	incf	(___awdiv@quotient),f
  1589  067E  1903               	skipnz
  1590  067F  0AF8               	incf	(___awdiv@quotient+1),f
  1591  0680  2E81               	goto	l3180
  1592                           	
  1593  0681                     l1901:	
  1594                           	line	36
  1595                           	
  1596  0681                     l3180:	
  1597  0681  0878               	movf	(___awdiv@quotient+1),w
  1598  0682  01F1               	clrf	(?___awdiv+1)
  1599  0683  07F1               	addwf	(?___awdiv+1)
  1600  0684  0877               	movf	(___awdiv@quotient),w
  1601  0685  01F0               	clrf	(?___awdiv)
  1602  0686  07F0               	addwf	(?___awdiv)
  1603                           
  1604  0687  2E88               	goto	l1902
  1605                           	
  1606  0688                     l3182:	
  1607                           	line	37
  1608                           	
  1609  0688                     l1902:	
  1610  0688  0008               	return
  1611                           	opt stack 0
  1612                           GLOBAL	__end_of___awdiv
  1613  0689                     	__end_of___awdiv:
  1614 ;; =============== function ___awdiv ends ============
  1615                           
  1616                           	signat	___awdiv,8314
  1617                           	global	_Init
  1618                           psect	text162,local,class=CODE,delta=2
  1619                           global __ptext162
  1620  0577                     __ptext162:
  1621                           
  1622 ;; *************** function _Init *****************
  1623 ;; Defined at:
  1624 ;;		line 26 in file "main.c"
  1625 ;; Parameters:    Size  Location     Type
  1626 ;;		None
  1627 ;; Auto vars:     Size  Location     Type
  1628 ;;		None
  1629 ;; Return value:  Size  Location     Type
  1630 ;;		None               void
  1631 ;; Registers used:
  1632 ;;		wreg, status,2
  1633 ;; Tracked objects:
  1634 ;;		On entry : 0/0
  1635 ;;		On exit  : 0/0
  1636 ;;		Unchanged: 0/0
  1637 ;; Data sizes:     COMMON   BANK0   BANK1   BANK3   BANK2
  1638 ;;      Params:         0       0       0       0       0
  1639 ;;      Locals:         0       0       0       0       0
  1640 ;;      Temps:          0       0       0       0       0
  1641 ;;      Totals:         0       0       0       0       0
  1642 ;;Total ram usage:        0 bytes
  1643 ;; Hardware stack levels used:    1
  1644 ;; This function calls:
  1645 ;;		Nothing
  1646 ;; This function is called by:
  1647 ;;		_main
  1648 ;; This function uses a non-reentrant model
  1649 ;;
  1650                           psect	text162
  1651                           	file	"main.c"
  1652                           	line	26
  1653                           	global	__size_of_Init
  1654  0007                     	__size_of_Init	equ	__end_of_Init-_Init
  1655                           	
  1656  0577                     _Init:	
  1657                           	opt	stack 7
  1658                           ; Regs used in _Init: [wreg+status,2]
  1659                           	line	28
  1660                           	
  1661  0577                     l3138:	
  1662                           ;main.c: 28: TRISA = 4;
  1663  0577  3004               	movlw	(04h)
  1664  0578  1683               	bsf	status, 5	;RP0=1, select bank1
  1665  0579  1303               	bcf	status, 6	;RP1=0, select bank1
  1666  057A  0085               	movwf	(133)^080h	;volatile
  1667                           	line	29
  1668                           	
  1669  057B                     l3140:	
  1670                           ;main.c: 29: TRISB = 0;
  1671  057B  0186               	clrf	(134)^080h	;volatile
  1672                           	line	30
  1673                           	
  1674  057C                     l3142:	
  1675                           ;main.c: 30: TRISC = 0;
  1676  057C  0187               	clrf	(135)^080h	;volatile
  1677                           	line	45
  1678                           	
  1679  057D                     l573:	
  1680  057D  0008               	return
  1681                           	opt stack 0
  1682                           GLOBAL	__end_of_Init
  1683  057E                     	__end_of_Init:
  1684 ;; =============== function _Init ends ============
  1685                           
  1686                           	signat	_Init,88
  1687                           psect	text163,local,class=CODE,delta=2
  1688                           global __ptext163
  1689  0000                     __ptext163:
  1690                           	global	btemp
  1691  007E                     	btemp set 07Eh
  1692                           
  1693                           	DABS	1,126,2	;btemp
  1694                           	global	wtemp0
  1695  007E                     	wtemp0 set btemp


HI-TECH Software PICC Macro Assembler V9.82 build 9453 
Symbol Table                                                                                   Mon Apr 17 13:59:22 2017

                   pc 0002                    _RD 0C60                    _WR 0C61          ___awdiv@sign 0076  
                  fsr 0004                   l573 057D                   l581 070A                   l583 0715  
                 l584 071C                   l585 0729                   l586 072A                   l578 06AA  
                 l587 072A                   l579 0718                   _GIE 005F                   fsr0 0004  
                 indf 0000          ___awmod@sign 0021          main@SevenSeg 0032                  l1160 07B6  
                l1161 075C                  l1162 0798                  l1170 0792                  l1171 07AF  
                l1163 0765                  l1172 07CD                  l1164 0766                  l1173 07EE  
                l1165 0766                  l1166 076D                  l1158 0753                  l1167 0793  
                l1159 07FF                  l3200 05DD                  l1168 078D                  l1169 078D  
                l3202 05E3                  l3210 0603                  l3140 057B                  l3212 0607  
                l3204 05ED                  l3220 0736                  l3142 057C                  l3150 0627  
                l3214 060D                  l3206 05F4                  l3230 0752                  l3222 073D  
                l3160 063D                  l3152 062C                  l3144 0615                  l3216 0614  
                l3208 05FB                  l3240 076D                  l3232 0753                  l3224 0740  
                l3138 0577                  l3170 0666                  l3162 0644                  l3154 0631  
                l3146 061A                  l3250 07AF                  l3242 0772                  l3234 0758  
                l3226 074A                  l3218 0730                  l3180 0681                  l1900 0676  
                l3172 0668                  l3164 0649                  l3156 0633                  l3148 0623  
                l3260 07EE                  l3244 0778                  l3236 075C                  l3252 07B6  
                l3228 0750                  l1901 0681                  l3182 0688                  l1902 0688  
                l3174 066F                  l3166 064F                  l3158 0639                  l3190 05C1  
                l3262 07FD                  l3254 07CD                  l3246 0793                  l3238 0763  
                l3270 06A5                  l3168 0660                  l3176 0677                  l3192 05C7  
                l3184 05AD                  l3264 07FF                  l3256 07EB                  l3248 0798  
                l3280 06FB                  l3272 06A7                  l3178 067B                  l3194 05CD  
                l3186 05B4                  l3258 07ED                  l3290 071C                  l3282 0701  
                l3274 06AA                  l3266 0689                  l3196 05D1                  l3188 05BD  
                l3284 0707                  l3276 06BB                  l3268 068E                  l3198 05D8  
                l3286 070A                  l3278 06FA                  l1960 05BD                  l3288 0715  
                l1961 05C7                  l1970 0614                  l1962 0603                  l1963 05DD  
                l1892 0623                  l1964 05D1                  l1893 0631                  l1965 05E2  
                l1894 0677                  l1966 05E3                  l1895 0649                  l1967 05F4  
                l1896 063D                  l1968 0602                  l1897 064E                  l1969 060D  
                l1898 064F                  l1899 0668                  u2410 0675                  u2330 061A  
                u2411 0674                  u2331 0619                  u2420 067B                  u2340 0627  
                u2500 0601                  u2405 0669                  u2341 0626                  u2501 0600  
                u2350 0639                  u2510 0607                  u2430 05B4                  u2351 0638  
                u2431 05B3                  u2440 05C1                  u2520 0750                  u2600 0698  
                u2441 05C0                  u2521 074F                  u2370 064D                  u2450 05CD  
                u2530 076C                  u2610 06BB                  u2371 064C                  u2451 05CC  
                u2531 076B                  u2611 06BA                  u2540 0778                  u2620 0707  
                u2365 063E                  u2541 0777                  u2621 0706                  u2390 0660  
                u2470 05E1                  u2391 065F                  u2471 05E0                  u2480 05ED  
                u2560 0791                  u2385 0650                  u2481 05EC                  u2465 05D2  
                u2561 0790                  u2570 07AE                  u2554 0781                  u2395 065C  
                u2571 07AD                  u2555 077F                  u2580 07CC                  u2485 05E9  
                u2581 07CB                  u2637 0722                  u2590 07EB                  u2495 05F5  
                u2591 07EA                  u2647 0738                  u2657 0747                  u2667 0755  
                u2677 076F                  _WREN 0C62                  _Init 0577                  _main 0689  
                btemp 007E                  start 0000                 ?_Init 0070                 ?_main 0070  
     __end_of___awdiv 0689                 _EEADR 010D       __end_of___awmod 0615                 _CARRY 0018  
     ___awdiv@divisor 0070       ___awdiv@counter 0075                 _PORTB 0006                 _PORTC 0007  
               _TRISA 0085                 _TRISB 0086                 _TRISC 0087       __end_of_dht_get 0800  
               pclath 000A                 status 0003                 wtemp0 007E          __end_of_Init 057E  
        __end_of_main 072D                ??_Init 0070                ??_main 002E                _EEDATA 010C  
              _EECON1 018C                _EECON2 018D      ___awdiv@dividend 0072             ??___awdiv 0074  
           ??___awmod 007D      ___awdiv@quotient 0077       ___awmod@divisor 0079       ___awmod@counter 0020  
           ??_dht_get 0020        __pcstackCOMMON 0070          __pidataBANK0 057E            __pmaintext 0689  
             ___awdiv 0615               ___awmod 05AD               _dht_get 072D      ___awmod@dividend 007B  
end_of_initialization 0596               init_ram 059E            dht_get@tmp 0026             _PORTAbits 0005  
           _TRISAbits 0085            main@decine 0042   start_initialization 0588           __pdataBANK0 0046  
       __pcstackBANK0 0020             _main$1060 003E              ?___awdiv 0070             __ptext160 05AD  
           __ptext161 0615             __ptext162 0577             __ptext163 0000             __ptext159 072D  
            ?___awmod 0079              ?_dht_get 0079             dht_get@RH 0079             main@unita 003C  
           init_fetch 059A      __size_of___awdiv 0074      __size_of___awmod 0068      __size_of_dht_get 00D3  
       __size_of_Init 0007         __size_of_main 00A4              main@F919 0046              dht_get@i 002D  
            dht_get@j 002C              main@temp 0044              main@umid 0040           dht_get@dati 0027  
